target datalayout = "e-m:e-p270:32:32-p271:32:32-p272:64:64-i64:64-i128:128-f80:128-n8:16:32:64-S128"
target triple = "x86_64-unknown-linux-gnu"

%"class.rocksdb::(anonymous namespace)::HashSkipListRepFactory" = type { %"class.rocksdb::MemTableRepFactory", %"struct.rocksdb::(anonymous namespace)::HashSkipListRepOptions" }
%"class.rocksdb::MemTableRepFactory" = type { %"class.rocksdb::Customizable" }
%"class.rocksdb::Customizable" = type { %"class.rocksdb::Configurable" }
%"class.rocksdb::Configurable" = type { ptr, %"class.std::vector.19" }
%"class.std::vector.19" = type { %"struct.std::_Vector_base.20" }
%"struct.std::_Vector_base.20" = type { %"struct.std::_Vector_base<rocksdb::Configurable::RegisteredOptions, std::allocator<rocksdb::Configurable::RegisteredOptions>>::_Vector_impl" }
%"struct.std::_Vector_base<rocksdb::Configurable::RegisteredOptions, std::allocator<rocksdb::Configurable::RegisteredOptions>>::_Vector_impl" = type { %"struct.std::_Vector_base<rocksdb::Configurable::RegisteredOptions, std::allocator<rocksdb::Configurable::RegisteredOptions>>::_Vector_impl_data" }
%"struct.std::_Vector_base<rocksdb::Configurable::RegisteredOptions, std::allocator<rocksdb::Configurable::RegisteredOptions>>::_Vector_impl_data" = type { ptr, ptr, ptr }
%"struct.rocksdb::(anonymous namespace)::HashSkipListRepOptions" = type { i64, i32, i32 }
%"class.rocksdb::(anonymous namespace)::HashSkipListRep" = type { %"class.rocksdb::MemTableRep", i64, i32, i32, ptr, ptr, ptr, ptr }
%"class.rocksdb::MemTableRep" = type { ptr, ptr }
%"struct.std::atomic" = type { %"struct.std::__atomic_base" }
%"struct.std::__atomic_base" = type { ptr }

@_ZTVN7rocksdb11MemTableRepE = external unnamed_addr constant { [25 x ptr] }, align 8

; Function Attrs: noreturn nounwind uwtable
define linkonce_odr hidden void @__clang_call_terminate(ptr noundef %0) #11 comdat {
  %2 = call ptr @__cxa_begin_catch(ptr %0) #3
  call void @_ZSt9terminatev() #15
  unreachable
}

; Function Attrs: mustprogress nounwind uwtable
define linkonce_odr noundef i32 @_ZStanSt12memory_orderSt23__memory_order_modifier(i32 noundef %__m, i32 noundef %__mod) #1 comdat {
entry:
  %__m.addr = alloca i32, align 4
  %__mod.addr = alloca i32, align 4
  store i32 %__m, ptr %__m.addr, align 4
  store i32 %__mod, ptr %__mod.addr, align 4
  %0 = load i32, ptr %__m.addr, align 4
  %1 = load i32, ptr %__mod.addr, align 4
  %and = and i32 %0, %1
  ret i32 %and
}

; Function Attrs: mustprogress nounwind uwtable
define linkonce_odr void @_ZN7rocksdb11MemTableRepD2Ev(ptr noundef nonnull align 8 dereferenceable(16) %this) unnamed_addr #1 comdat align 2 {
entry:
  %this.addr = alloca ptr, align 8
  store ptr %this, ptr %this.addr, align 8
  ret void
}

; Function Attrs: mustprogress nounwind uwtable
define linkonce_odr void @_ZNSt6atomicIPN7rocksdb8SkipListIPKcRKNS0_11MemTableRep13KeyComparatorEEEE5storeES9_St12memory_order(ptr noundef nonnull align 8 dereferenceable(8) %this, ptr noundef %__p, i32 noundef %__m) #1 comdat align 2 personality ptr @__gxx_personality_v0 {
entry:
  %this.addr.i = alloca ptr, align 8
  %__p.addr.i = alloca ptr, align 8
  %__m.addr.i = alloca i32, align 4
  %__b.i = alloca i32, align 4
  %.atomictmp.i = alloca ptr, align 8
  %this.addr = alloca ptr, align 8
  %__p.addr = alloca ptr, align 8
  %__m.addr = alloca i32, align 4
  store ptr %this, ptr %this.addr, align 8
  store ptr %__p, ptr %__p.addr, align 8
  store i32 %__m, ptr %__m.addr, align 4
  %this1 = load ptr, ptr %this.addr, align 8
  %_M_b = getelementptr inbounds %"struct.std::atomic", ptr %this1, i32 0, i32 0
  %0 = load ptr, ptr %__p.addr, align 8
  %1 = load i32, ptr %__m.addr, align 4
  store ptr %_M_b, ptr %this.addr.i, align 8
  store ptr %0, ptr %__p.addr.i, align 8
  store i32 %1, ptr %__m.addr.i, align 4
  %this1.i = load ptr, ptr %this.addr.i, align 8
  %2 = load i32, ptr %__m.addr.i, align 4
  %call.i = invoke noundef i32 @_ZStanSt12memory_orderSt23__memory_order_modifier(i32 noundef %2, i32 noundef 65535)
          to label %invoke.cont.i unwind label %terminate.lpad.i

invoke.cont.i:                                    ; preds = %entry
  store i32 %call.i, ptr %__b.i, align 4
  %3 = load i32, ptr %__m.addr.i, align 4
  %4 = load ptr, ptr %__p.addr.i, align 8
  store ptr %4, ptr %.atomictmp.i, align 8
  switch i32 %3, label %monotonic.i [
    i32 3, label %release.i
    i32 5, label %seqcst.i
  ]

monotonic.i:                                      ; preds = %invoke.cont.i
  %5 = load i64, ptr %.atomictmp.i, align 8
  store atomic i64 %5, ptr %this1.i monotonic, align 8
  br label %_ZNSt13__atomic_baseIPN7rocksdb8SkipListIPKcRKNS0_11MemTableRep13KeyComparatorEEEE5storeES9_St12memory_order.exit

release.i:                                        ; preds = %invoke.cont.i
  %6 = load i64, ptr %.atomictmp.i, align 8
  store atomic i64 %6, ptr %this1.i release, align 8
  br label %_ZNSt13__atomic_baseIPN7rocksdb8SkipListIPKcRKNS0_11MemTableRep13KeyComparatorEEEE5storeES9_St12memory_order.exit

seqcst.i:                                         ; preds = %invoke.cont.i
  %7 = load i64, ptr %.atomictmp.i, align 8
  store atomic i64 %7, ptr %this1.i seq_cst, align 8
  br label %_ZNSt13__atomic_baseIPN7rocksdb8SkipListIPKcRKNS0_11MemTableRep13KeyComparatorEEEE5storeES9_St12memory_order.exit

terminate.lpad.i:                                 ; preds = %entry
  %8 = landingpad { ptr, i32 }
          catch ptr null
  %9 = extractvalue { ptr, i32 } %8, 0
  call void @__clang_call_terminate(ptr %9) #15
  unreachable

_ZNSt13__atomic_baseIPN7rocksdb8SkipListIPKcRKNS0_11MemTableRep13KeyComparatorEEEE5storeES9_St12memory_order.exit: ; preds = %seqcst.i, %release.i, %monotonic.i
  ret void
}

; Function Attrs: mustprogress nounwind uwtable
define linkonce_odr void @_ZN7rocksdb11MemTableRepC2EPNS_9AllocatorE(ptr noundef nonnull align 8 dereferenceable(16) %this, ptr noundef %allocator) unnamed_addr #1 comdat align 2 {
entry:
  %this.addr = alloca ptr, align 8
  %allocator.addr = alloca ptr, align 8
  store ptr %this, ptr %this.addr, align 8
  store ptr %allocator, ptr %allocator.addr, align 8
  %this1 = load ptr, ptr %this.addr, align 8
  store ptr getelementptr inbounds ({ [25 x ptr] }, ptr @_ZTVN7rocksdb11MemTableRepE, i32 0, i32 0, i32 2), ptr %this1, align 8
  %allocator_ = getelementptr inbounds %"class.rocksdb::MemTableRep", ptr %this1, i32 0, i32 1
  %0 = load ptr, ptr %allocator.addr, align 8
  store ptr %0, ptr %allocator_, align 8
  ret void
}

; Function Attrs: mustprogress uwtable
define internal void @_ZN7rocksdb12_GLOBAL__N_115HashSkipListRepC2ERKNS_11MemTableRep13KeyComparatorEPNS_9AllocatorEPKNS_14SliceTransformEmii(ptr noundef nonnull align 8 dereferenceable(64) %this, ptr noundef nonnull align 8 dereferenceable(8) %compare, ptr noundef %allocator, ptr noundef %transform, i64 noundef %bucket_size, i32 noundef %skiplist_height, i32 noundef %skiplist_branching_factor) unnamed_addr #0 align 2 personality ptr @__gxx_personality_v0 {
entry:
  %this.addr = alloca ptr, align 8
  %compare.addr = alloca ptr, align 8
  %allocator.addr = alloca ptr, align 8
  %transform.addr = alloca ptr, align 8
  %bucket_size.addr = alloca i64, align 8
  %skiplist_height.addr = alloca i32, align 4
  %skiplist_branching_factor.addr = alloca i32, align 4
  %mem = alloca ptr, align 8
  %exn.slot = alloca ptr, align 8
  %ehselector.slot = alloca i32, align 4
  %i = alloca i64, align 8
  store ptr %this, ptr %this.addr, align 8
  store ptr %compare, ptr %compare.addr, align 8
  store ptr %allocator, ptr %allocator.addr, align 8
  store ptr %transform, ptr %transform.addr, align 8
  store i64 %bucket_size, ptr %bucket_size.addr, align 8
  store i32 %skiplist_height, ptr %skiplist_height.addr, align 4
  store i32 %skiplist_branching_factor, ptr %skiplist_branching_factor.addr, align 4
  %this1 = load ptr, ptr %this.addr, align 8
  %0 = load ptr, ptr %allocator.addr, align 8
  call void @_ZN7rocksdb11MemTableRepC2EPNS_9AllocatorE(ptr noundef nonnull align 8 dereferenceable(16) %this1, ptr noundef %0)
  store ptr getelementptr inbounds ({ [25 x ptr] }, ptr @_ZTVN7rocksdb12_GLOBAL__N_115HashSkipListRepE, i32 0, i32 0, i32 2), ptr %this1, align 8
  %bucket_size_ = getelementptr inbounds %"class.rocksdb::(anonymous namespace)::HashSkipListRep", ptr %this1, i32 0, i32 1
  %1 = load i64, ptr %bucket_size.addr, align 8
  store i64 %1, ptr %bucket_size_, align 8
  %skiplist_height_ = getelementptr inbounds %"class.rocksdb::(anonymous namespace)::HashSkipListRep", ptr %this1, i32 0, i32 2
  %2 = load i32, ptr %skiplist_height.addr, align 4
  store i32 %2, ptr %skiplist_height_, align 8
  %skiplist_branching_factor_ = getelementptr inbounds %"class.rocksdb::(anonymous namespace)::HashSkipListRep", ptr %this1, i32 0, i32 3
  %3 = load i32, ptr %skiplist_branching_factor.addr, align 4
  store i32 %3, ptr %skiplist_branching_factor_, align 4
  %transform_ = getelementptr inbounds %"class.rocksdb::(anonymous namespace)::HashSkipListRep", ptr %this1, i32 0, i32 5
  %4 = load ptr, ptr %transform.addr, align 8
  store ptr %4, ptr %transform_, align 8
  %compare_ = getelementptr inbounds %"class.rocksdb::(anonymous namespace)::HashSkipListRep", ptr %this1, i32 0, i32 6
  %5 = load ptr, ptr %compare.addr, align 8
  store ptr %5, ptr %compare_, align 8
  %allocator_ = getelementptr inbounds %"class.rocksdb::(anonymous namespace)::HashSkipListRep", ptr %this1, i32 0, i32 7
  %6 = load ptr, ptr %allocator.addr, align 8
  store ptr %6, ptr %allocator_, align 8
  %7 = load ptr, ptr %allocator.addr, align 8
  %8 = load i64, ptr %bucket_size.addr, align 8
  %mul = mul i64 8, %8
  %vtable = load ptr, ptr %7, align 8
  %vfn = getelementptr inbounds ptr, ptr %vtable, i64 3
  %9 = load ptr, ptr %vfn, align 8
  %call = invoke noundef ptr %9(ptr noundef nonnull align 8 dereferenceable(8) %7, i64 noundef %mul, i64 noundef 0, ptr noundef null)
          to label %invoke.cont unwind label %lpad

invoke.cont:                                      ; preds = %entry
  store ptr %call, ptr %mem, align 8
  %10 = load ptr, ptr %mem, align 8
  %buckets_ = getelementptr inbounds %"class.rocksdb::(anonymous namespace)::HashSkipListRep", ptr %this1, i32 0, i32 4
  store ptr %10, ptr %buckets_, align 8
  store i64 0, ptr %i, align 8
  br label %for.cond

for.cond:                                         ; preds = %for.inc, %invoke.cont
  %11 = load i64, ptr %i, align 8
  %bucket_size_2 = getelementptr inbounds %"class.rocksdb::(anonymous namespace)::HashSkipListRep", ptr %this1, i32 0, i32 1
  %12 = load i64, ptr %bucket_size_2, align 8
  %cmp = icmp ult i64 %11, %12
  br i1 %cmp, label %for.body, label %for.end

for.body:                                         ; preds = %for.cond
  %buckets_3 = getelementptr inbounds %"class.rocksdb::(anonymous namespace)::HashSkipListRep", ptr %this1, i32 0, i32 4
  %13 = load ptr, ptr %buckets_3, align 8
  %14 = load i64, ptr %i, align 8
  %arrayidx = getelementptr inbounds %"struct.std::atomic", ptr %13, i64 %14
  call void @_ZNSt6atomicIPN7rocksdb8SkipListIPKcRKNS0_11MemTableRep13KeyComparatorEEEE5storeES9_St12memory_order(ptr noundef nonnull align 8 dereferenceable(8) %arrayidx, ptr noundef null, i32 noundef 0) #3
  br label %for.inc

for.inc:                                          ; preds = %for.body
  %15 = load i64, ptr %i, align 8
  %inc = add i64 %15, 1
  store i64 %inc, ptr %i, align 8
  br label %for.cond, !llvm.loop !7

lpad:                                             ; preds = %entry
  %16 = landingpad { ptr, i32 }
          cleanup
  %17 = extractvalue { ptr, i32 } %16, 0
  store ptr %17, ptr %exn.slot, align 8
  %18 = extractvalue { ptr, i32 } %16, 1
  store i32 %18, ptr %ehselector.slot, align 4
  call void @_ZN7rocksdb11MemTableRepD2Ev(ptr noundef nonnull align 8 dereferenceable(16) %this1) #3
  br label %eh.resume

for.end:                                          ; preds = %for.cond
  ret void

eh.resume:                                        ; preds = %lpad
  %exn = load ptr, ptr %exn.slot, align 8
  %sel = load i32, ptr %ehselector.slot, align 4
  %lpad.val = insertvalue { ptr, i32 } poison, ptr %exn, 0
  %lpad.val4 = insertvalue { ptr, i32 } %lpad.val, i32 %sel, 1
  resume { ptr, i32 } %lpad.val4
}

; Function Attrs: mustprogress uwtable
define internal noundef ptr @_ZN7rocksdb12_GLOBAL__N_122HashSkipListRepFactory17CreateMemTableRepERKNS_11MemTableRep13KeyComparatorEPNS_9AllocatorEPKNS_14SliceTransformEPNS_6LoggerE(ptr noundef nonnull align 8 dereferenceable(48) %this, ptr noundef nonnull align 8 dereferenceable(8) %compare, ptr noundef %allocator, ptr noundef %transform, ptr noundef %0) unnamed_addr #0 align 2 personality ptr @__gxx_personality_v0 {
entry:
  %this.addr = alloca ptr, align 8
  %compare.addr = alloca ptr, align 8
  %allocator.addr = alloca ptr, align 8
  %transform.addr = alloca ptr, align 8
  %.addr = alloca ptr, align 8
  %exn.slot = alloca ptr, align 8
  %ehselector.slot = alloca i32, align 4
  store ptr %this, ptr %this.addr, align 8
  store ptr %compare, ptr %compare.addr, align 8
  store ptr %allocator, ptr %allocator.addr, align 8
  store ptr %transform, ptr %transform.addr, align 8
  store ptr %0, ptr %.addr, align 8
  %this1 = load ptr, ptr %this.addr, align 8
  %call = call noalias noundef nonnull ptr @_Znwm(i64 noundef 64) #17
  %1 = load ptr, ptr %compare.addr, align 8
  %2 = load ptr, ptr %allocator.addr, align 8
  %3 = load ptr, ptr %transform.addr, align 8
  %options_ = getelementptr inbounds %"class.rocksdb::(anonymous namespace)::HashSkipListRepFactory", ptr %this1, i32 0, i32 1
  %bucket_count = getelementptr inbounds %"struct.rocksdb::(anonymous namespace)::HashSkipListRepOptions", ptr %options_, i32 0, i32 0
  %4 = load i64, ptr %bucket_count, align 8
  %options_2 = getelementptr inbounds %"class.rocksdb::(anonymous namespace)::HashSkipListRepFactory", ptr %this1, i32 0, i32 1
  %skiplist_height = getelementptr inbounds %"struct.rocksdb::(anonymous namespace)::HashSkipListRepOptions", ptr %options_2, i32 0, i32 1
  %5 = load i32, ptr %skiplist_height, align 8
  %options_3 = getelementptr inbounds %"class.rocksdb::(anonymous namespace)::HashSkipListRepFactory", ptr %this1, i32 0, i32 1
  %skiplist_branching_factor = getelementptr inbounds %"struct.rocksdb::(anonymous namespace)::HashSkipListRepOptions", ptr %options_3, i32 0, i32 2
  %6 = load i32, ptr %skiplist_branching_factor, align 4
  invoke void @_ZN7rocksdb12_GLOBAL__N_115HashSkipListRepC2ERKNS_11MemTableRep13KeyComparatorEPNS_9AllocatorEPKNS_14SliceTransformEmii(ptr noundef nonnull align 8 dereferenceable(64) %call, ptr noundef nonnull align 8 dereferenceable(8) %1, ptr noundef %2, ptr noundef %3, i64 noundef %4, i32 noundef %5, i32 noundef %6)
          to label %invoke.cont unwind label %lpad

invoke.cont:                                      ; preds = %entry
  ret ptr %call

lpad:                                             ; preds = %entry
  %7 = landingpad { ptr, i32 }
          cleanup
  %8 = extractvalue { ptr, i32 } %7, 0
  store ptr %8, ptr %exn.slot, align 8
  %9 = extractvalue { ptr, i32 } %7, 1
  store i32 %9, ptr %ehselector.slot, align 4
  call void @_ZdlPv(ptr noundef %call) #18
  br label %eh.resume

eh.resume:                                        ; preds = %lpad
  %exn = load ptr, ptr %exn.slot, align 8
  %sel = load i32, ptr %ehselector.slot, align 4
  %lpad.val = insertvalue { ptr, i32 } poison, ptr %exn, 0
  %lpad.val4 = insertvalue { ptr, i32 } %lpad.val, i32 %sel, 1
  resume { ptr, i32 } %lpad.val4
}