; Function Attrs: mustprogress uwtable
define internal noundef ptr @_ZN7rocksdb12_GLOBAL__N_122HashSkipListRepFactory17CreateMemTableRepERKNS_11MemTableRep13KeyComparatorEPNS_9AllocatorEPKNS_14SliceTransformEPNS_6LoggerE(ptr nocapture noundef nonnull readonly align 8 dereferenceable(48) %this, ptr noundef nonnull align 8 dereferenceable(8) %compare, ptr noundef %allocator, ptr noundef %transform, ptr nocapture readnone %0) unnamed_addr #3 align 2 personality ptr @__gxx_personality_v0 {
entry:
  %call = tail call noalias noundef nonnull dereferenceable(64) ptr @_Znwm(i64 noundef 64) #23
  %options_ = getelementptr inbounds i8, ptr %this, i64 32
  %1 = load i64, ptr %options_, align 8
  %skiplist_height = getelementptr inbounds i8, ptr %this, i64 40
  %allocator_.i.i = getelementptr inbounds i8, ptr %call, i64 8
  store ptr %allocator, ptr %allocator_.i.i, align 8
  store ptr getelementptr inbounds ({ [25 x ptr] }, ptr @_ZTVN7rocksdb12_GLOBAL__N_115HashSkipListRepE, i64 0, i32 0, i64 2), ptr %call, align 8
  %bucket_size_.i = getelementptr inbounds i8, ptr %call, i64 16
  store i64 %1, ptr %bucket_size_.i, align 8
  %skiplist_height_.i = getelementptr inbounds i8, ptr %call, i64 24
  %2 = load <2 x i32>, ptr %skiplist_height, align 8
  store <2 x i32> %2, ptr %skiplist_height_.i, align 8
  %transform_.i = getelementptr inbounds i8, ptr %call, i64 40
  store ptr %transform, ptr %transform_.i, align 8
  %compare_.i = getelementptr inbounds i8, ptr %call, i64 48
  store ptr %compare, ptr %compare_.i, align 8
  %allocator_.i = getelementptr inbounds i8, ptr %call, i64 56
  store ptr %allocator, ptr %allocator_.i, align 8
  %mul.i = shl i64 %1, 3
  %vtable.i = load ptr, ptr %allocator, align 8
  %vfn.i = getelementptr inbounds i8, ptr %vtable.i, i64 24
  %3 = load ptr, ptr %vfn.i, align 8
  %call.i1 = invoke noundef ptr %3(ptr noundef nonnull align 8 dereferenceable(8) %allocator, i64 noundef %mul.i, i64 noundef 0, ptr noundef null)
          to label %call.i.noexc unwind label %lpad

call.i.noexc:                                     ; preds = %entry
  %buckets_.i = getelementptr inbounds i8, ptr %call, i64 32
  store ptr %call.i1, ptr %buckets_.i, align 8
  %cmp6.not.i = icmp eq i64 %1, 0
  br i1 %cmp6.not.i, label %invoke.cont, label %for.body.i

for.body.i:                                       ; preds = %call.i.noexc, %for.body.i
  %i.07.i = phi i64 [ %inc.i, %for.body.i ], [ 0, %call.i.noexc ]
  %arrayidx.i = getelementptr inbounds %"struct.std::atomic", ptr %call.i1, i64 %i.07.i
  store atomic i64 0, ptr %arrayidx.i monotonic, align 8
  %inc.i = add nuw i64 %i.07.i, 1
  %cmp.i = icmp ult i64 %inc.i, %1
  br i1 %cmp.i, label %for.body.i, label %invoke.cont, !llvm.loop !7

invoke.cont:                                      ; preds = %for.body.i, %call.i.noexc
  ret ptr %call

lpad:                                             ; preds = %entry
  %4 = landingpad { ptr, i32 }
          cleanup
  tail call void @_ZdlPv(ptr noundef nonnull %call) #20
  resume { ptr, i32 } %4
}